; Function Attrs: nofree nounwind uwtable
define noundef i32 @Abc_NtkHaigCountFans(ptr noundef readonly captures(none) %0) local_unnamed_addr #2 {
  %2 = getelementptr inbounds nuw i8, ptr %0, i64 16
  %3 = load ptr, ptr %2, align 8, !tbaa !11
  %4 = getelementptr i8, ptr %3, i64 4
  %.val = load i32, ptr %4, align 4, !tbaa !3
  %5 = icmp sgt i32 %.val, 0
  br i1 %5, label %.lr.ph, label %.critedge

.lr.ph:                                           ; preds = %1
  %6 = getelementptr i8, ptr %3, i64 8
  %.val10 = load ptr, ptr %6, align 8, !tbaa !10
  %wide.trip.count = zext nneg i32 %.val to i64
  br label %7

7:                                                ; preds = %.lr.ph, %15
  %indvars.iv = phi i64 [ 0, %.lr.ph ], [ %indvars.iv.next, %15 ]
  %.013 = phi i32 [ 0, %.lr.ph ], [ %.1, %15 ]
  %8 = getelementptr inbounds nuw ptr, ptr %.val10, i64 %indvars.iv
  %9 = load ptr, ptr %8, align 8, !tbaa !18
  %10 = load ptr, ptr %9, align 8, !tbaa !19
  %11 = icmp eq ptr %10, null
  br i1 %11, label %15, label %12

12:                                               ; preds = %7
  %13 = getelementptr i8, ptr %9, i64 32
  %.val11 = load i32, ptr %13, align 8
  %.not = icmp ugt i32 %.val11, 63
  %14 = zext i1 %.not to i32
  %spec.select = add nsw i32 %.013, %14
  br label %15

15:                                               ; preds = %12, %7
  %.1 = phi i32 [ %.013, %7 ], [ %spec.select, %12 ]
  %indvars.iv.next = add nuw nsw i64 %indvars.iv, 1
  %exitcond.not = icmp eq i64 %indvars.iv.next, %wide.trip.count
  br i1 %exitcond.not, label %.critedge, label %7, !llvm.loop !29

.critedge:                                        ; preds = %15, %1
  %.0.lcssa = phi i32 [ 0, %1 ], [ %.1, %15 ]
  %16 = tail call i32 (ptr, ...) @printf(ptr noundef nonnull dereferenceable(1) @.str, i32 noundef %.0.lcssa)
  ret i32 %.0.lcssa
}